target datalayout = "e-m:e-p270:32:32-p271:32:32-p272:64:64-i64:64-i128:128-f80:128-n8:16:32:64-S128"
target triple = "x86_64-pc-linux-gnu"

%struct.mi_memid_s = type { %union.anon, i8, i8, i8, i32 }
%union.anon = type { %struct.mi_memid_os_info }
%struct.mi_memid_os_info = type { ptr, i64 }
%struct.mi_arena_s = type { i32, %struct.mi_memid_s, ptr, i64, i64, i64, %struct.mi_memid_s, i32, i8, i8, %union.pthread_mutex_t, i64, i64, ptr, ptr, ptr, ptr, [1 x i64] }
%union.pthread_mutex_t = type { %struct.__pthread_mutex_s }
%struct.__pthread_mutex_s = type { i32, i32, i32, i32, i32, i16, i16, %struct.__pthread_internal_list }
%struct.__pthread_internal_list = type { ptr, ptr }

; Function Attrs: inlinehint nounwind uwtable
define internal i64 @mi_bitmap_index_bit(i64 noundef %0) #4 {
  %2 = alloca i64, align 8
  store i64 %0, ptr %2, align 8, !tbaa !15
  %3 = load i64, ptr %2, align 8, !tbaa !15
  ret i64 %3
}

; Function Attrs: nounwind uwtable
define hidden ptr @mi_arena_block_start(ptr noundef %0, i64 noundef %1) #0 {
  %3 = alloca ptr, align 8
  %4 = alloca i64, align 8
  store ptr %0, ptr %3, align 8, !tbaa !16
  store i64 %1, ptr %4, align 8, !tbaa !15
  %5 = load ptr, ptr %3, align 8, !tbaa !16
  %6 = getelementptr inbounds nuw %struct.mi_arena_s, ptr %5, i32 0, i32 2
  %7 = load atomic ptr, ptr %6 seq_cst, align 8, !tbaa !66
  %8 = load i64, ptr %4, align 8, !tbaa !15
  %9 = call i64 @mi_bitmap_index_bit(i64 noundef %8) #12
  %10 = call i64 @mi_arena_block_size(i64 noundef %9) #12
  %11 = getelementptr inbounds nuw i8, ptr %7, i64 %10
  ret ptr %11
}

; Function Attrs: nounwind uwtable
define internal i64 @mi_arena_block_size(i64 noundef %0) #0 {
  %2 = alloca i64, align 8
  store i64 %0, ptr %2, align 8, !tbaa !15
  %3 = load i64, ptr %2, align 8, !tbaa !15
  %4 = mul i64 %3, 4194304
  ret i64 %4
}

; Function Attrs: nounwind uwtable
define internal void @mi_arena_purge(ptr noundef %0, i64 noundef %1, i64 noundef %2) #0 {
  %4 = alloca ptr, align 8
  %5 = alloca i64, align 8
  %6 = alloca i64, align 8
  %7 = alloca i64, align 8
  %8 = alloca ptr, align 8
  %9 = alloca i8, align 1
  store ptr %0, ptr %4, align 8, !tbaa !16
  store i64 %1, ptr %5, align 8, !tbaa !15
  store i64 %2, ptr %6, align 8, !tbaa !15
  call void @llvm.lifetime.start.p0(i64 8, ptr %7) #13
  %10 = load i64, ptr %6, align 8, !tbaa !15
  %11 = call i64 @mi_arena_block_size(i64 noundef %10) #12
  store i64 %11, ptr %7, align 8, !tbaa !15
  call void @llvm.lifetime.start.p0(i64 8, ptr %8) #13
  %12 = load ptr, ptr %4, align 8, !tbaa !16
  %13 = load i64, ptr %5, align 8, !tbaa !15
  %14 = call ptr @mi_arena_block_start(ptr noundef %12, i64 noundef %13) #12
  store ptr %14, ptr %8, align 8, !tbaa !53
  call void @llvm.lifetime.start.p0(i64 1, ptr %9) #13
  %15 = load ptr, ptr %4, align 8, !tbaa !16
  %16 = getelementptr inbounds nuw %struct.mi_arena_s, ptr %15, i32 0, i32 14
  %17 = load ptr, ptr %16, align 8, !tbaa !77
  %18 = load ptr, ptr %4, align 8, !tbaa !16
  %19 = getelementptr inbounds nuw %struct.mi_arena_s, ptr %18, i32 0, i32 4
  %20 = load i64, ptr %19, align 8, !tbaa !20
  %21 = load i64, ptr %6, align 8, !tbaa !15
  %22 = load i64, ptr %5, align 8, !tbaa !15
  %23 = call zeroext i1 @_mi_bitmap_is_claimed_across(ptr noundef %17, i64 noundef %20, i64 noundef %21, i64 noundef %22) #12
  br i1 %23, label %24, label %29

24:                                               ; preds = %3
  %25 = load ptr, ptr %8, align 8, !tbaa !53
  %26 = load i64, ptr %7, align 8, !tbaa !15
  %27 = call zeroext i1 @_mi_os_purge(ptr noundef %25, i64 noundef %26) #12
  %28 = zext i1 %27 to i8
  store i8 %28, ptr %9, align 1, !tbaa !21
  br label %34

29:                                               ; preds = %3
  %30 = load ptr, ptr %8, align 8, !tbaa !53
  %31 = load i64, ptr %7, align 8, !tbaa !15
  %32 = call zeroext i1 @_mi_os_purge_ex(ptr noundef %30, i64 noundef %31, i1 noundef zeroext false, i64 noundef 0) #12
  %33 = zext i1 %32 to i8
  store i8 %33, ptr %9, align 1, !tbaa !21
  br label %34

34:                                               ; preds = %29, %24
  %35 = load ptr, ptr %4, align 8, !tbaa !16
  %36 = getelementptr inbounds nuw %struct.mi_arena_s, ptr %35, i32 0, i32 15
  %37 = load ptr, ptr %36, align 8, !tbaa !78
  %38 = load ptr, ptr %4, align 8, !tbaa !16
  %39 = getelementptr inbounds nuw %struct.mi_arena_s, ptr %38, i32 0, i32 4
  %40 = load i64, ptr %39, align 8, !tbaa !20
  %41 = load i64, ptr %6, align 8, !tbaa !15
  %42 = load i64, ptr %5, align 8, !tbaa !15
  %43 = call zeroext i1 @_mi_bitmap_unclaim_across(ptr noundef %37, i64 noundef %40, i64 noundef %41, i64 noundef %42) #12
  %44 = load i8, ptr %9, align 1, !tbaa !21, !range !22, !noundef !23
  %45 = trunc i8 %44 to i1
  br i1 %45, label %46, label %56

46:                                               ; preds = %34
  %47 = load ptr, ptr %4, align 8, !tbaa !16
  %48 = getelementptr inbounds nuw %struct.mi_arena_s, ptr %47, i32 0, i32 14
  %49 = load ptr, ptr %48, align 8, !tbaa !77
  %50 = load ptr, ptr %4, align 8, !tbaa !16
  %51 = getelementptr inbounds nuw %struct.mi_arena_s, ptr %50, i32 0, i32 4
  %52 = load i64, ptr %51, align 8, !tbaa !20
  %53 = load i64, ptr %6, align 8, !tbaa !15
  %54 = load i64, ptr %5, align 8, !tbaa !15
  %55 = call zeroext i1 @_mi_bitmap_unclaim_across(ptr noundef %49, i64 noundef %52, i64 noundef %53, i64 noundef %54) #12
  br label %56

56:                                               ; preds = %46, %34
  call void @llvm.lifetime.end.p0(i64 1, ptr %9) #13
  call void @llvm.lifetime.end.p0(i64 8, ptr %8) #13
  call void @llvm.lifetime.end.p0(i64 8, ptr %7) #13
  ret void
}