; Function Attrs: nounwind uwtable
define internal fastcc void @mi_arena_purge(ptr noundef nonnull readonly captures(none) %0, i64 noundef %1, i64 noundef %2) unnamed_addr #0 {
  %4 = shl i64 %2, 22
  %5 = getelementptr inbounds nuw i8, ptr %0, i64 32
  %6 = load atomic ptr, ptr %5 seq_cst, align 8, !tbaa !49
  %7 = shl i64 %1, 22
  %8 = getelementptr inbounds nuw i8, ptr %6, i64 %7
  %9 = getelementptr inbounds nuw i8, ptr %0, i64 160
  %10 = load ptr, ptr %9, align 8, !tbaa !58
  %11 = getelementptr inbounds nuw i8, ptr %0, i64 48
  %12 = load i64, ptr %11, align 8, !tbaa !17
  %13 = tail call zeroext i1 @_mi_bitmap_is_claimed_across(ptr noundef %10, i64 noundef %12, i64 noundef %2, i64 noundef %1) #20
  %14 = getelementptr inbounds nuw i8, ptr %0, i64 168
  br i1 %13, label %15, label %20

15:                                               ; preds = %3
  %16 = tail call zeroext i1 @_mi_os_purge(ptr noundef %8, i64 noundef %4) #20
  %17 = load ptr, ptr %14, align 8, !tbaa !59
  %18 = load i64, ptr %11, align 8, !tbaa !17
  %19 = tail call zeroext i1 @_mi_bitmap_unclaim_across(ptr noundef %17, i64 noundef %18, i64 noundef %2, i64 noundef %1) #20
  br i1 %16, label %25, label %29

20:                                               ; preds = %3
  %21 = tail call zeroext i1 @_mi_os_purge_ex(ptr noundef %8, i64 noundef %4, i1 noundef zeroext false, i64 noundef 0) #20
  %22 = load ptr, ptr %14, align 8, !tbaa !59
  %23 = load i64, ptr %11, align 8, !tbaa !17
  %24 = tail call zeroext i1 @_mi_bitmap_unclaim_across(ptr noundef %22, i64 noundef %23, i64 noundef %2, i64 noundef %1) #20
  br i1 %21, label %25, label %29

25:                                               ; preds = %15, %20
  %26 = load ptr, ptr %9, align 8, !tbaa !58
  %27 = load i64, ptr %11, align 8, !tbaa !17
  %28 = tail call zeroext i1 @_mi_bitmap_unclaim_across(ptr noundef %26, i64 noundef %27, i64 noundef %2, i64 noundef %1) #20
  br label %29

29:                                               ; preds = %15, %25, %20
  ret void
}